; Function Attrs: mustprogress uwtable
define hidden noundef zeroext i1 @_ZNK8facebook6hermes7tracing10SynthTrace15EndExecJSRecordeqERKNS2_6RecordE(ptr noundef nonnull align 8 dereferenceable(64) %this, ptr noundef nonnull align 8 dereferenceable(16) %that) unnamed_addr #1 align 2 {
entry:
  %vtable.i = load ptr, ptr %this, align 8
  %vfn.i = getelementptr inbounds i8, ptr %vtable.i, i64 16
  %0 = load ptr, ptr %vfn.i, align 8
  %call.i = tail call noundef i32 %0(ptr noundef nonnull align 8 dereferenceable(16) %this)
  %vtable2.i = load ptr, ptr %that, align 8
  %vfn3.i = getelementptr inbounds i8, ptr %vtable2.i, i64 16
  %1 = load ptr, ptr %vfn3.i, align 8
  %call4.i = tail call noundef i32 %1(ptr noundef nonnull align 8 dereferenceable(16) %that)
  %cmp.i = icmp eq i32 %call.i, %call4.i
  br i1 %cmp.i, label %if.end, label %return

if.end:                                           ; preds = %entry
  %2 = tail call ptr @__dynamic_cast(ptr nonnull %that, ptr nonnull @_ZTIN8facebook6hermes7tracing10SynthTrace6RecordE, ptr nonnull @_ZTIN8facebook6hermes7tracing10SynthTrace15EndExecJSRecordE, i64 0) #23
  %3 = icmp eq ptr %2, null
  br i1 %3, label %dynamic_cast.bad_cast, label %dynamic_cast.end

dynamic_cast.bad_cast:                            ; preds = %if.end
  tail call void @__cxa_bad_cast() #26
  unreachable

dynamic_cast.end:                                 ; preds = %if.end
  %call2 = tail call noundef zeroext i1 @_ZNK8facebook6hermes7tracing10SynthTrace12MarkerRecordeqERKNS2_6RecordE(ptr noundef nonnull align 8 dereferenceable(48) %this, ptr noundef nonnull align 8 dereferenceable(16) %2)
  br i1 %call2, label %land.rhs, label %return

land.rhs:                                         ; preds = %dynamic_cast.end
  %add.ptr = getelementptr inbounds i8, ptr %this, i64 48
  %add.ptr3 = getelementptr inbounds i8, ptr %2, i64 48
  %4 = load i32, ptr %add.ptr, align 8
  %5 = load i32, ptr %add.ptr3, align 8
  %cmp.not.i.i = icmp eq i32 %4, %5
  br i1 %cmp.not.i.i, label %if.end.i.i, label %return

if.end.i.i:                                       ; preds = %land.rhs
  switch i32 %4, label %return [
    i32 2, label %sw.bb.i.i
    i32 3, label %sw.bb8.i.i
    i32 4, label %sw.bb12.i.i
    i32 5, label %sw.bb12.i.i
    i32 6, label %sw.bb12.i.i
  ]

sw.bb.i.i:                                        ; preds = %if.end.i.i
  %val_.i.i = getelementptr inbounds i8, ptr %this, i64 56
  %6 = load i8, ptr %val_.i.i, align 8
  %val_4.i.i = getelementptr inbounds i8, ptr %2, i64 56
  %7 = load i8, ptr %val_4.i.i, align 8
  %8 = xor i8 %7, %6
  %9 = and i8 %8, 1
  %cmp7.i.i = icmp eq i8 %9, 0
  br label %return

sw.bb8.i.i:                                       ; preds = %if.end.i.i
  %val_9.i.i = getelementptr inbounds i8, ptr %this, i64 56
  %10 = load double, ptr %val_9.i.i, align 8
  %val_10.i.i = getelementptr inbounds i8, ptr %2, i64 56
  %11 = load double, ptr %val_10.i.i, align 8
  %cmp11.i.i = fcmp oeq double %10, %11
  br label %return

sw.bb12.i.i:                                      ; preds = %if.end.i.i, %if.end.i.i, %if.end.i.i
  %val_13.i.i = getelementptr inbounds i8, ptr %this, i64 56
  %12 = load i64, ptr %val_13.i.i, align 8
  %val_14.i.i = getelementptr inbounds i8, ptr %2, i64 56
  %13 = load i64, ptr %val_14.i.i, align 8
  %cmp15.i.i = icmp eq i64 %12, %13
  br label %return

return:                                           ; preds = %sw.bb12.i.i, %sw.bb8.i.i, %sw.bb.i.i, %if.end.i.i, %land.rhs, %dynamic_cast.end, %entry
  %retval.0 = phi i1 [ false, %entry ], [ false, %dynamic_cast.end ], [ %cmp15.i.i, %sw.bb12.i.i ], [ %cmp11.i.i, %sw.bb8.i.i ], [ %cmp7.i.i, %sw.bb.i.i ], [ false, %land.rhs ], [ true, %if.end.i.i ]
  ret i1 %retval.0
}